; ModuleID = '51/467.c'
source_filename = "51/467.c"
target datalayout = "e-m:e-p270:32:32-p271:32:32-p272:64:64-i64:64-f80:128-n8:16:32:64-S128"
target triple = "x86_64-pc-linux-gnu"

@.str = private unnamed_addr constant [4 x i8] c"%d\0A\00", align 1
@.str.1 = private unnamed_addr constant [3 x i8] c"NO\00", align 1

; Function Attrs: noinline nounwind uwtable
define dso_local i32 @main() #0 {
  %1 = alloca i32, align 4
  %2 = alloca [600 x i8], align 16
  %3 = alloca [600 x [10 x i8]], align 16
  %4 = alloca [10 x i8], align 1
  %5 = alloca [600 x i32], align 16
  %6 = alloca i32, align 4
  %7 = alloca i32, align 4
  %8 = alloca i32, align 4
  %9 = alloca i32, align 4
  %10 = alloca i32, align 4
  %11 = alloca i32, align 4
  %12 = alloca i32, align 4
  store i32 0, i32* %1, align 4
  %13 = bitcast [600 x i32]* %5 to i8*
  call void @llvm.memset.p0i8.i64(i8* align 16 %13, i8 0, i64 2400, i1 false)
  %14 = call i32 (i8*, ...) @__isoc99_scanf(i8* getelementptr inbounds ([4 x i8], [4 x i8]* @.str, i64 0, i64 0), i32* %6)
  %15 = getelementptr inbounds [600 x i8], [600 x i8]* %2, i64 0, i64 0
  %16 = call i32 (i8*, ...) bitcast (i32 (...)* @gets to i32 (i8*, ...)*)(i8* %15)
  %17 = getelementptr inbounds [600 x i8], [600 x i8]* %2, i64 0, i64 0
  %18 = call i64 @strlen(i8* %17) #5
  %19 = trunc i64 %18 to i32
  store i32 %19, i32* %7, align 4
  store i32 0, i32* %10, align 4
  store i32 0, i32* %9, align 4
  br label %20

20:                                               ; preds = %33, %0
  %21 = load i32, i32* %9, align 4
  %22 = load i32, i32* %6, align 4
  %23 = icmp slt i32 %21, %22
  br i1 %23, label %24, label %36

24:                                               ; preds = %20
  %25 = load i32, i32* %9, align 4
  %26 = sext i32 %25 to i64
  %27 = getelementptr inbounds [600 x i8], [600 x i8]* %2, i64 0, i64 %26
  %28 = load i8, i8* %27, align 1
  %29 = getelementptr inbounds [600 x [10 x i8]], [600 x [10 x i8]]* %3, i64 0, i64 0
  %30 = load i32, i32* %9, align 4
  %31 = sext i32 %30 to i64
  %32 = getelementptr inbounds [10 x i8], [10 x i8]* %29, i64 0, i64 %31
  store i8 %28, i8* %32, align 1
  br label %33

33:                                               ; preds = %24
  %34 = load i32, i32* %9, align 4
  %35 = add nsw i32 %34, 1
  store i32 %35, i32* %9, align 4
  br label %20

36:                                               ; preds = %20
  %37 = getelementptr inbounds [600 x [10 x i8]], [600 x [10 x i8]]* %3, i64 0, i64 0
  %38 = load i32, i32* %6, align 4
  %39 = sext i32 %38 to i64
  %40 = getelementptr inbounds [10 x i8], [10 x i8]* %37, i64 0, i64 %39
  store i8 0, i8* %40, align 1
  store i32 1, i32* %8, align 4
  br label %41

41:                                               ; preds = %106, %36
  %42 = load i32, i32* %8, align 4
  %43 = load i32, i32* %7, align 4
  %44 = load i32, i32* %6, align 4
  %45 = sub nsw i32 %43, %44
  %46 = icmp sle i32 %42, %45
  br i1 %46, label %47, label %109

47:                                               ; preds = %41
  store i32 0, i32* %9, align 4
  br label %48

48:                                               ; preds = %62, %47
  %49 = load i32, i32* %9, align 4
  %50 = load i32, i32* %6, align 4
  %51 = icmp slt i32 %49, %50
  br i1 %51, label %52, label %65

52:                                               ; preds = %48
  %53 = load i32, i32* %8, align 4
  %54 = load i32, i32* %9, align 4
  %55 = add nsw i32 %53, %54
  %56 = sext i32 %55 to i64
  %57 = getelementptr inbounds [600 x i8], [600 x i8]* %2, i64 0, i64 %56
  %58 = load i8, i8* %57, align 1
  %59 = load i32, i32* %9, align 4
  %60 = sext i32 %59 to i64
  %61 = getelementptr inbounds [10 x i8], [10 x i8]* %4, i64 0, i64 %60
  store i8 %58, i8* %61, align 1
  br label %62

62:                                               ; preds = %52
  %63 = load i32, i32* %9, align 4
  %64 = add nsw i32 %63, 1
  store i32 %64, i32* %9, align 4
  br label %48

65:                                               ; preds = %48
  %66 = load i32, i32* %6, align 4
  %67 = sext i32 %66 to i64
  %68 = getelementptr inbounds [10 x i8], [10 x i8]* %4, i64 0, i64 %67
  store i8 0, i8* %68, align 1
  store i32 0, i32* %11, align 4
  br label %69

69:                                               ; preds = %88, %65
  %70 = load i32, i32* %11, align 4
  %71 = load i32, i32* %10, align 4
  %72 = icmp sle i32 %70, %71
  br i1 %72, label %73, label %91

73:                                               ; preds = %69
  %74 = getelementptr inbounds [10 x i8], [10 x i8]* %4, i64 0, i64 0
  %75 = load i32, i32* %11, align 4
  %76 = sext i32 %75 to i64
  %77 = getelementptr inbounds [600 x [10 x i8]], [600 x [10 x i8]]* %3, i64 0, i64 %76
  %78 = getelementptr inbounds [10 x i8], [10 x i8]* %77, i64 0, i64 0
  %79 = call i32 @strcmp(i8* %74, i8* %78) #5
  %80 = icmp eq i32 %79, 0
  br i1 %80, label %81, label %87

81:                                               ; preds = %73
  %82 = load i32, i32* %11, align 4
  %83 = sext i32 %82 to i64
  %84 = getelementptr inbounds [600 x i32], [600 x i32]* %5, i64 0, i64 %83
  %85 = load i32, i32* %84, align 4
  %86 = add nsw i32 %85, 1
  store i32 %86, i32* %84, align 4
  br label %91

87:                                               ; preds = %73
  br label %88

88:                                               ; preds = %87
  %89 = load i32, i32* %11, align 4
  %90 = add nsw i32 %89, 1
  store i32 %90, i32* %11, align 4
  br label %69

91:                                               ; preds = %81, %69
  %92 = load i32, i32* %11, align 4
  %93 = load i32, i32* %10, align 4
  %94 = add nsw i32 %93, 1
  %95 = icmp eq i32 %92, %94
  br i1 %95, label %96, label %105

96:                                               ; preds = %91
  %97 = load i32, i32* %10, align 4
  %98 = add nsw i32 %97, 1
  store i32 %98, i32* %10, align 4
  %99 = load i32, i32* %10, align 4
  %100 = sext i32 %99 to i64
  %101 = getelementptr inbounds [600 x [10 x i8]], [600 x [10 x i8]]* %3, i64 0, i64 %100
  %102 = getelementptr inbounds [10 x i8], [10 x i8]* %101, i64 0, i64 0
  %103 = getelementptr inbounds [10 x i8], [10 x i8]* %4, i64 0, i64 0
  %104 = call i8* @strcpy(i8* %102, i8* %103) #6
  br label %105

105:                                              ; preds = %96, %91
  br label %106

106:                                              ; preds = %105
  %107 = load i32, i32* %8, align 4
  %108 = add nsw i32 %107, 1
  store i32 %108, i32* %8, align 4
  br label %41

109:                                              ; preds = %41
  store i32 0, i32* %12, align 4
  store i32 0, i32* %8, align 4
  br label %110

110:                                              ; preds = %127, %109
  %111 = load i32, i32* %8, align 4
  %112 = load i32, i32* %10, align 4
  %113 = icmp sle i32 %111, %112
  br i1 %113, label %114, label %130

114:                                              ; preds = %110
  %115 = load i32, i32* %8, align 4
  %116 = sext i32 %115 to i64
  %117 = getelementptr inbounds [600 x i32], [600 x i32]* %5, i64 0, i64 %116
  %118 = load i32, i32* %117, align 4
  %119 = load i32, i32* %12, align 4
  %120 = icmp sgt i32 %118, %119
  br i1 %120, label %121, label %126

121:                                              ; preds = %114
  %122 = load i32, i32* %8, align 4
  %123 = sext i32 %122 to i64
  %124 = getelementptr inbounds [600 x i32], [600 x i32]* %5, i64 0, i64 %123
  %125 = load i32, i32* %124, align 4
  store i32 %125, i32* %12, align 4
  br label %126

126:                                              ; preds = %121, %114
  br label %127

127:                                              ; preds = %126
  %128 = load i32, i32* %8, align 4
  %129 = add nsw i32 %128, 1
  store i32 %129, i32* %8, align 4
  br label %110

130:                                              ; preds = %110
  %131 = load i32, i32* %12, align 4
  %132 = icmp eq i32 %131, 0
  br i1 %132, label %133, label %135

133:                                              ; preds = %130
  %134 = call i32 (i8*, ...) @printf(i8* getelementptr inbounds ([3 x i8], [3 x i8]* @.str.1, i64 0, i64 0))
  br label %161

135:                                              ; preds = %130
  %136 = load i32, i32* %12, align 4
  %137 = add nsw i32 %136, 1
  %138 = call i32 (i8*, ...) @printf(i8* getelementptr inbounds ([4 x i8], [4 x i8]* @.str, i64 0, i64 0), i32 %137)
  store i32 0, i32* %8, align 4
  br label %139

139:                                              ; preds = %157, %135
  %140 = load i32, i32* %8, align 4
  %141 = load i32, i32* %10, align 4
  %142 = icmp sle i32 %140, %141
  br i1 %142, label %143, label %160

143:                                              ; preds = %139
  %144 = load i32, i32* %8, align 4
  %145 = sext i32 %144 to i64
  %146 = getelementptr inbounds [600 x i32], [600 x i32]* %5, i64 0, i64 %145
  %147 = load i32, i32* %146, align 4
  %148 = load i32, i32* %12, align 4
  %149 = icmp eq i32 %147, %148
  br i1 %149, label %150, label %156

150:                                              ; preds = %143
  %151 = load i32, i32* %8, align 4
  %152 = sext i32 %151 to i64
  %153 = getelementptr inbounds [600 x [10 x i8]], [600 x [10 x i8]]* %3, i64 0, i64 %152
  %154 = getelementptr inbounds [10 x i8], [10 x i8]* %153, i64 0, i64 0
  %155 = call i32 @puts(i8* %154)
  br label %156

156:                                              ; preds = %150, %143
  br label %157

157:                                              ; preds = %156
  %158 = load i32, i32* %8, align 4
  %159 = add nsw i32 %158, 1
  store i32 %159, i32* %8, align 4
  br label %139

160:                                              ; preds = %139
  br label %161

161:                                              ; preds = %160, %133
  ret i32 0
}

; Function Attrs: argmemonly nounwind willreturn
declare void @llvm.memset.p0i8.i64(i8* nocapture writeonly, i8, i64, i1 immarg) #1

declare dso_local i32 @__isoc99_scanf(i8*, ...) #2

declare dso_local i32 @gets(...) #2

; Function Attrs: nounwind readonly
declare dso_local i64 @strlen(i8*) #3

; Function Attrs: nounwind readonly
declare dso_local i32 @strcmp(i8*, i8*) #3

; Function Attrs: nounwind
declare dso_local i8* @strcpy(i8*, i8*) #4

declare dso_local i32 @printf(i8*, ...) #2

declare dso_local i32 @puts(i8*) #2


!llvm.module.flags = !{!0}
!llvm.ident = !{!1}

!0 = !{i32 1, !"wchar_size", i32 4}
!1 = !{!"clang version 10.0.0-4ubuntu1 "}
